target datalayout = "e-m:e-p270:32:32-p271:32:32-p272:64:64-i64:64-i128:128-f80:128-n8:16:32:64-S128"
target triple = "x86_64-unknown-linux-gnu"

%struct.tsd_s = type { i8, i8, i64, i64, i64, i64, i64, i64, i64, i64, i64, i64, i64, i64, ptr, i64, i64, i64, ptr, ptr, %struct.ticker_geom_s, i8, %struct.tsd_binshards_s, %struct.tsd_link_t, i8, %struct.peak_s, %struct.activity_callback_thunk_s, %struct.tcache_slow_s, %struct.rtree_ctx_s, %struct.atomic_u8_t, i64, i64, i64, i64, %struct.tcache_s, %struct.witness_tsd_s }
%struct.ticker_geom_s = type { i32, i32 }
%struct.tsd_binshards_s = type { [39 x i8] }
%struct.tsd_link_t = type { ptr, ptr }
%struct.peak_s = type { i64, i64 }
%struct.activity_callback_thunk_s = type { ptr, ptr }
%struct.tcache_slow_s = type { %struct.anon.8, %struct.cache_bin_array_descriptor_s, ptr, i32, [39 x i8], [39 x i8], [39 x i8], ptr, ptr }
%struct.anon.8 = type { ptr, ptr }
%struct.cache_bin_array_descriptor_s = type { %struct.anon.9, ptr }
%struct.anon.9 = type { ptr, ptr }
%struct.rtree_ctx_s = type { [16 x %struct.rtree_ctx_cache_elm_s], [8 x %struct.rtree_ctx_cache_elm_s] }
%struct.rtree_ctx_cache_elm_s = type { i64, ptr }
%struct.atomic_u8_t = type { i8 }
%struct.tcache_s = type { ptr, [76 x %struct.cache_bin_s] }
%struct.cache_bin_s = type { ptr, %struct.cache_bin_stats_s, i16, i16, i16 }
%struct.cache_bin_stats_s = type { i64 }
%struct.witness_tsd_s = type { %struct.witness_list_t, i8 }
%struct.witness_list_t = type { ptr }

@malloc_init_state = hidden global i32 3, align 4
@sz_index2size_tab = external global [235 x i64], align 16
@sz_size2index_tab = external global [0 x i8], align 1
@tsd_tls = external thread_local(initialexec) global %struct.tsd_s, align 8

; Function Attrs: nounwind allocsize(0) uwtable
define dso_local noalias ptr @je_malloc(i64 noundef %size) #2 {
entry:
  %tsd.addr.i2.i40 = alloca ptr, align 8
  %tsd.addr.i.i41 = alloca ptr, align 8
  %tsd.addr.i42 = alloca ptr, align 8
  %state.i43 = alloca i8, align 1
  %tsd.addr.i2.i = alloca ptr, align 8
  %tsd.addr.i.i36 = alloca ptr, align 8
  %tsd.addr.i37 = alloca ptr, align 8
  %state.i38 = alloca i8, align 1
  %tsd.addr.i33 = alloca ptr, align 8
  %v.addr.i34 = alloca i64, align 8
  %tsd.addr.i32 = alloca ptr, align 8
  %v.addr.i = alloca i64, align 8
  %tsd.addr.i31 = alloca ptr, align 8
  %tsd.addr.i30 = alloca ptr, align 8
  %tsd.addr.i29 = alloca ptr, align 8
  %tsd.addr.i23 = alloca ptr, align 8
  %allocated_after.addr.i24 = alloca i64, align 8
  %bin.addr.i25 = alloca ptr, align 8
  %ret.addr.i26 = alloca ptr, align 8
  %tsd.addr.i21 = alloca ptr, align 8
  %allocated_after.addr.i = alloca i64, align 8
  %bin.addr.i22 = alloca ptr, align 8
  %ret.addr.i = alloca ptr, align 8
  %retval.i.i = alloca ptr, align 8
  %bin.addr.i.i = alloca ptr, align 8
  %success.addr.i.i = alloca ptr, align 8
  %adjust_low_water.addr.i.i = alloca i8, align 1
  %ret.i.i = alloca ptr, align 8
  %low_bits.i.i = alloca i16, align 2
  %new_head.i.i = alloca ptr, align 8
  %bin.addr.i18 = alloca ptr, align 8
  %success.addr.i19 = alloca ptr, align 8
  %tsd.addr.i.i = alloca ptr, align 8
  %tsd.addr.i16 = alloca ptr, align 8
  %state.i = alloca i8, align 1
  %tsd.addr.i = alloca ptr, align 8
  %allocated.addr.i = alloca ptr, align 8
  %threshold.addr.i = alloca ptr, align 8
  %size.addr.i.i = alloca i64, align 8
  %index.addr.i.i = alloca i32, align 4
  %size.addr.i15 = alloca i64, align 8
  %ind.addr.i = alloca ptr, align 8
  %usize.addr.i = alloca ptr, align 8
  %init.addr.i = alloca i8, align 1
  %retval.i2 = alloca ptr, align 8
  %bin.addr.i3 = alloca ptr, align 8
  %success.addr.i4 = alloca ptr, align 8
  %adjust_low_water.addr.i = alloca i8, align 1
  %ret.i5 = alloca ptr, align 8
  %low_bits.i = alloca i16, align 2
  %new_head.i = alloca ptr, align 8
  %bin.addr.i = alloca ptr, align 8
  %success.addr.i = alloca ptr, align 8
  %retval.i = alloca ptr, align 8
  %size.addr.i = alloca i64, align 8
  %fallback_alloc.addr.i = alloca ptr, align 8
  %tsd.i = alloca ptr, align 8
  %ind.i = alloca i32, align 4
  %usize.i = alloca i64, align 8
  %allocated.i = alloca i64, align 8
  %threshold.i = alloca i64, align 8
  %allocated_after.i = alloca i64, align 8
  %tcache.i = alloca ptr, align 8
  %bin.i = alloca ptr, align 8
  %tcache_success.i = alloca i8, align 1
  %ret.i = alloca ptr, align 8
  %size.addr = alloca i64, align 8
  store i64 %size, ptr %size.addr, align 8
  %0 = load i64, ptr %size.addr, align 8
  store i64 %0, ptr %size.addr.i, align 8
  store ptr @malloc_default, ptr %fallback_alloc.addr.i, align 8
  br i1 false, label %land.lhs.true.i, label %if.end.i

land.lhs.true.i:                                  ; preds = %entry
  %1 = load i32, ptr @malloc_init_state, align 4
  %cmp.i13 = icmp eq i32 %1, 0
  %lnot3.i = xor i1 %cmp.i13, true
  br i1 %lnot3.i, label %if.then.i, label %if.end.i

if.then.i:                                        ; preds = %land.lhs.true.i
  %2 = load ptr, ptr %fallback_alloc.addr.i, align 8
  %3 = load i64, ptr %size.addr.i, align 8
  %call4.i = call ptr %2(i64 noundef %3) #14
  store ptr %call4.i, ptr %retval.i, align 8
  br label %imalloc_fastpath.exit

if.end.i:                                         ; preds = %land.lhs.true.i, %entry
  store i8 0, ptr %init.addr.i, align 1
  %4 = call align 8 ptr @llvm.threadlocal.address.p0(ptr align 8 @tsd_tls)
  store ptr %4, ptr %tsd.i, align 8
  %5 = load i64, ptr %size.addr.i, align 8
  %cmp.i = icmp ugt i64 %5, 4096
  br i1 %cmp.i, label %lor.end.i, label %lor.rhs.i

lor.rhs.i:                                        ; preds = %if.end.i
  %6 = load ptr, ptr %tsd.i, align 8
  %cmp7.i = icmp eq ptr %6, null
  br label %lor.end.i

lor.end.i:                                        ; preds = %lor.rhs.i, %if.end.i
  %7 = phi i1 [ true, %if.end.i ], [ %cmp7.i, %lor.rhs.i ]
  br i1 %7, label %if.then15.i, label %if.end17.i

if.then15.i:                                      ; preds = %lor.end.i
  %8 = load ptr, ptr %fallback_alloc.addr.i, align 8
  %9 = load i64, ptr %size.addr.i, align 8
  %call16.i = call ptr %8(i64 noundef %9) #14
  store ptr %call16.i, ptr %retval.i, align 8
  br label %imalloc_fastpath.exit

if.end17.i:                                       ; preds = %lor.end.i
  %10 = load i64, ptr %size.addr.i, align 8
  store i64 %10, ptr %size.addr.i15, align 8
  store ptr %ind.i, ptr %ind.addr.i, align 8
  store ptr %usize.i, ptr %usize.addr.i, align 8
  %11 = load i64, ptr %size.addr.i15, align 8
  store i64 %11, ptr %size.addr.i.i, align 8
  %12 = load i64, ptr %size.addr.i.i, align 8
  %add.i.i = add i64 %12, 8
  %sub.i.i = sub i64 %add.i.i, 1
  %shr.i.i = lshr i64 %sub.i.i, 3
  %arrayidx.i2.i = getelementptr inbounds [0 x i8], ptr @sz_size2index_tab, i64 0, i64 %shr.i.i
  %13 = load i8, ptr %arrayidx.i2.i, align 1
  %conv.i.i = zext i8 %13 to i32
  %14 = load ptr, ptr %ind.addr.i, align 8
  store i32 %conv.i.i, ptr %14, align 4
  %15 = load ptr, ptr %ind.addr.i, align 8
  %16 = load i32, ptr %15, align 4
  store i32 %16, ptr %index.addr.i.i, align 4
  %17 = load i32, ptr %index.addr.i.i, align 4
  %idxprom.i.i = zext i32 %17 to i64
  %arrayidx.i.i = getelementptr inbounds [235 x i64], ptr @sz_index2size_tab, i64 0, i64 %idxprom.i.i
  %18 = load i64, ptr %arrayidx.i.i, align 8
  %19 = load ptr, ptr %usize.addr.i, align 8
  store i64 %18, ptr %19, align 8
  %20 = load ptr, ptr %tsd.i, align 8
  store ptr %20, ptr %tsd.addr.i, align 8
  store ptr %allocated.i, ptr %allocated.addr.i, align 8
  store ptr %threshold.i, ptr %threshold.addr.i, align 8
  %21 = load ptr, ptr %tsd.addr.i, align 8
  store ptr %21, ptr %tsd.addr.i29, align 8
  %22 = load ptr, ptr %tsd.addr.i29, align 8
  %cant_access_tsd_items_directly_use_a_getter_or_setter_thread_allocated.i = getelementptr inbounds %struct.tsd_s, ptr %22, i32 0, i32 30
  %23 = load i64, ptr %cant_access_tsd_items_directly_use_a_getter_or_setter_thread_allocated.i, align 8
  %24 = load ptr, ptr %allocated.addr.i, align 8
  store i64 %23, ptr %24, align 8
  %25 = load ptr, ptr %tsd.addr.i, align 8
  store ptr %25, ptr %tsd.addr.i30, align 8
  %26 = load ptr, ptr %tsd.addr.i30, align 8
  %cant_access_tsd_items_directly_use_a_getter_or_setter_thread_allocated_next_event_fast.i = getelementptr inbounds %struct.tsd_s, ptr %26, i32 0, i32 31
  %27 = load i64, ptr %cant_access_tsd_items_directly_use_a_getter_or_setter_thread_allocated_next_event_fast.i, align 8
  %28 = load ptr, ptr %threshold.addr.i, align 8
  store i64 %27, ptr %28, align 8
  %29 = load i64, ptr %allocated.i, align 8
  %30 = load i64, ptr %usize.i, align 8
  %add.i = add i64 %29, %30
  store i64 %add.i, ptr %allocated_after.i, align 8
  %31 = load i32, ptr @malloc_init_state, align 4
  %cmp.i14 = icmp eq i32 %31, 0
  br i1 %cmp.i14, label %if.else.i, label %if.then23.i

if.then23.i:                                      ; preds = %if.end17.i
  br label %if.end30.i

if.else.i:                                        ; preds = %if.end17.i
  br label %if.end30.i

if.end30.i:                                       ; preds = %if.else.i, %if.then23.i
  %32 = load i64, ptr %allocated_after.i, align 8
  %33 = load i64, ptr %threshold.i, align 8
  %cmp31.i = icmp uge i64 %32, %33
  br i1 %cmp31.i, label %if.then39.i, label %if.end41.i

if.then39.i:                                      ; preds = %if.end30.i
  %34 = load ptr, ptr %fallback_alloc.addr.i, align 8
  %35 = load i64, ptr %size.addr.i, align 8
  %call40.i = call ptr %34(i64 noundef %35) #14
  store ptr %call40.i, ptr %retval.i, align 8
  br label %imalloc_fastpath.exit

if.end41.i:                                       ; preds = %if.end30.i
  %36 = load ptr, ptr %tsd.i, align 8
  store ptr %36, ptr %tsd.addr.i16, align 8
  %37 = load ptr, ptr %tsd.addr.i16, align 8
  store ptr %37, ptr %tsd.addr.i.i, align 8
  %38 = load ptr, ptr %tsd.addr.i.i, align 8
  %state.i.i = getelementptr inbounds %struct.tsd_s, ptr %38, i32 0, i32 29
  %39 = load i8, ptr %state.i.i, align 8
  store i8 %39, ptr %state.i, align 1
  %40 = load ptr, ptr %tsd.addr.i16, align 8
  store ptr %40, ptr %tsd.addr.i31, align 8
  %41 = load ptr, ptr %tsd.addr.i31, align 8
  %cant_access_tsd_items_directly_use_a_getter_or_setter_tcache.i = getelementptr inbounds %struct.tsd_s, ptr %41, i32 0, i32 34
  store ptr %cant_access_tsd_items_directly_use_a_getter_or_setter_tcache.i, ptr %tcache.i, align 8
  %42 = load ptr, ptr %tcache.i, align 8
  %bins.i = getelementptr inbounds %struct.tcache_s, ptr %42, i32 0, i32 1
  %43 = load i32, ptr %ind.i, align 4
  %idxprom.i = zext i32 %43 to i64
  %arrayidx.i = getelementptr inbounds [76 x %struct.cache_bin_s], ptr %bins.i, i64 0, i64 %idxprom.i
  store ptr %arrayidx.i, ptr %bin.i, align 8
  %44 = load ptr, ptr %bin.i, align 8
  store ptr %44, ptr %bin.addr.i18, align 8
  store ptr %tcache_success.i, ptr %success.addr.i19, align 8
  %45 = load ptr, ptr %bin.addr.i18, align 8
  %46 = load ptr, ptr %success.addr.i19, align 8
  store ptr %45, ptr %bin.addr.i.i, align 8
  store ptr %46, ptr %success.addr.i.i, align 8
  store i8 0, ptr %adjust_low_water.addr.i.i, align 1
  %47 = load ptr, ptr %bin.addr.i.i, align 8
  %48 = load ptr, ptr %47, align 8
  %49 = load ptr, ptr %48, align 8
  store ptr %49, ptr %ret.i.i, align 8
  %50 = load ptr, ptr %bin.addr.i.i, align 8
  %51 = load ptr, ptr %50, align 8
  %52 = ptrtoint ptr %51 to i64
  %conv.i.i20 = trunc i64 %52 to i16
  store i16 %conv.i.i20, ptr %low_bits.i.i, align 2
  %53 = load ptr, ptr %bin.addr.i.i, align 8
  %54 = load ptr, ptr %53, align 8
  %add.ptr.i.i = getelementptr inbounds ptr, ptr %54, i64 1
  store ptr %add.ptr.i.i, ptr %new_head.i.i, align 8
  %55 = load i16, ptr %low_bits.i.i, align 2
  %conv3.i.i = zext i16 %55 to i32
  %56 = load ptr, ptr %bin.addr.i.i, align 8
  %low_bits_low_water.i.i = getelementptr inbounds %struct.cache_bin_s, ptr %56, i32 0, i32 2
  %57 = load i16, ptr %low_bits_low_water.i.i, align 8
  %conv4.i.i = zext i16 %57 to i32
  %cmp.i.i = icmp ne i32 %conv3.i.i, %conv4.i.i
  br i1 %cmp.i.i, label %if.then.i.i, label %if.end.i.i

if.then.i.i:                                      ; preds = %if.end41.i
  %58 = load ptr, ptr %new_head.i.i, align 8
  %59 = load ptr, ptr %bin.addr.i.i, align 8
  store ptr %58, ptr %59, align 8
  %60 = load ptr, ptr %success.addr.i.i, align 8
  store i8 1, ptr %60, align 1
  %61 = load ptr, ptr %ret.i.i, align 8
  store ptr %61, ptr %retval.i.i, align 8
  br label %cache_bin_alloc_easy.exit

if.end.i.i:                                       ; preds = %if.end41.i
  %62 = load i8, ptr %adjust_low_water.addr.i.i, align 1
  %tobool9.i.i = trunc i8 %62 to i1
  br i1 %tobool9.i.i, label %if.end11.i.i, label %if.then10.i.i

if.then10.i.i:                                    ; preds = %if.end.i.i
  %63 = load ptr, ptr %success.addr.i.i, align 8
  store i8 0, ptr %63, align 1
  store ptr null, ptr %retval.i.i, align 8
  br label %cache_bin_alloc_easy.exit

if.end11.i.i:                                     ; preds = %if.end.i.i
  %64 = load i16, ptr %low_bits.i.i, align 2
  %conv12.i.i = zext i16 %64 to i32
  %65 = load ptr, ptr %bin.addr.i.i, align 8
  %low_bits_empty.i.i = getelementptr inbounds %struct.cache_bin_s, ptr %65, i32 0, i32 4
  %66 = load i16, ptr %low_bits_empty.i.i, align 4
  %conv13.i.i = zext i16 %66 to i32
  %cmp14.i.i = icmp ne i32 %conv12.i.i, %conv13.i.i
  br i1 %cmp14.i.i, label %if.then22.i.i, label %if.end26.i.i

if.then22.i.i:                                    ; preds = %if.end11.i.i
  %67 = load ptr, ptr %new_head.i.i, align 8
  %68 = load ptr, ptr %bin.addr.i.i, align 8
  store ptr %67, ptr %68, align 8
  %69 = load ptr, ptr %new_head.i.i, align 8
  %70 = ptrtoint ptr %69 to i64
  %conv24.i.i = trunc i64 %70 to i16
  %71 = load ptr, ptr %bin.addr.i.i, align 8
  %low_bits_low_water25.i.i = getelementptr inbounds %struct.cache_bin_s, ptr %71, i32 0, i32 2
  store i16 %conv24.i.i, ptr %low_bits_low_water25.i.i, align 8
  %72 = load ptr, ptr %success.addr.i.i, align 8
  store i8 1, ptr %72, align 1
  %73 = load ptr, ptr %ret.i.i, align 8
  store ptr %73, ptr %retval.i.i, align 8
  br label %cache_bin_alloc_easy.exit

if.end26.i.i:                                     ; preds = %if.end11.i.i
  %74 = load ptr, ptr %success.addr.i.i, align 8
  store i8 0, ptr %74, align 1
  store ptr null, ptr %retval.i.i, align 8
  br label %cache_bin_alloc_easy.exit

cache_bin_alloc_easy.exit:                        ; preds = %if.end26.i.i, %if.then22.i.i, %if.then10.i.i, %if.then.i.i
  %75 = load ptr, ptr %retval.i.i, align 8
  store ptr %75, ptr %ret.i, align 8
  %76 = load i8, ptr %tcache_success.i, align 1
  %tobool48.i = trunc i8 %76 to i1
  br i1 %tobool48.i, label %if.then49.i, label %if.end50.i

if.then49.i:                                      ; preds = %cache_bin_alloc_easy.exit
  %77 = load ptr, ptr %tsd.i, align 8
  %78 = load i64, ptr %allocated_after.i, align 8
  %79 = load ptr, ptr %bin.i, align 8
  %80 = load ptr, ptr %ret.i, align 8
  store ptr %77, ptr %tsd.addr.i21, align 8
  store i64 %78, ptr %allocated_after.addr.i, align 8
  store ptr %79, ptr %bin.addr.i22, align 8
  store ptr %80, ptr %ret.addr.i, align 8
  %81 = load ptr, ptr %tsd.addr.i21, align 8
  %82 = load i64, ptr %allocated_after.addr.i, align 8
  store ptr %81, ptr %tsd.addr.i33, align 8
  store i64 %82, ptr %v.addr.i34, align 8
  %83 = load i64, ptr %v.addr.i34, align 8
  %84 = load ptr, ptr %tsd.addr.i33, align 8
  store ptr %84, ptr %tsd.addr.i37, align 8
  %85 = load ptr, ptr %tsd.addr.i37, align 8
  store ptr %85, ptr %tsd.addr.i.i36, align 8
  %86 = load ptr, ptr %tsd.addr.i.i36, align 8
  %state.i.i39 = getelementptr inbounds %struct.tsd_s, ptr %86, i32 0, i32 29
  %87 = load i8, ptr %state.i.i39, align 8
  store i8 %87, ptr %state.i38, align 1
  %88 = load ptr, ptr %tsd.addr.i37, align 8
  store ptr %88, ptr %tsd.addr.i2.i, align 8
  %89 = load ptr, ptr %tsd.addr.i2.i, align 8
  %cant_access_tsd_items_directly_use_a_getter_or_setter_thread_allocated.i.i = getelementptr inbounds %struct.tsd_s, ptr %89, i32 0, i32 30
  store i64 %83, ptr %cant_access_tsd_items_directly_use_a_getter_or_setter_thread_allocated.i.i, align 8
  %90 = load ptr, ptr %bin.addr.i22, align 8
  %tstats.i = getelementptr inbounds %struct.cache_bin_s, ptr %90, i32 0, i32 1
  %91 = load i64, ptr %tstats.i, align 8
  %inc.i = add i64 %91, 1
  store i64 %inc.i, ptr %tstats.i, align 8
  %92 = load ptr, ptr %ret.i, align 8
  store ptr %92, ptr %retval.i, align 8
  br label %imalloc_fastpath.exit

if.end50.i:                                       ; preds = %cache_bin_alloc_easy.exit
  %93 = load ptr, ptr %bin.i, align 8
  store ptr %93, ptr %bin.addr.i, align 8
  store ptr %tcache_success.i, ptr %success.addr.i, align 8
  %94 = load ptr, ptr %bin.addr.i, align 8
  %95 = load ptr, ptr %success.addr.i, align 8
  store ptr %94, ptr %bin.addr.i3, align 8
  store ptr %95, ptr %success.addr.i4, align 8
  store i8 1, ptr %adjust_low_water.addr.i, align 1
  %96 = load ptr, ptr %bin.addr.i3, align 8
  %97 = load ptr, ptr %96, align 8
  %98 = load ptr, ptr %97, align 8
  store ptr %98, ptr %ret.i5, align 8
  %99 = load ptr, ptr %bin.addr.i3, align 8
  %100 = load ptr, ptr %99, align 8
  %101 = ptrtoint ptr %100 to i64
  %conv.i6 = trunc i64 %101 to i16
  store i16 %conv.i6, ptr %low_bits.i, align 2
  %102 = load ptr, ptr %bin.addr.i3, align 8
  %103 = load ptr, ptr %102, align 8
  %add.ptr.i = getelementptr inbounds ptr, ptr %103, i64 1
  store ptr %add.ptr.i, ptr %new_head.i, align 8
  %104 = load i16, ptr %low_bits.i, align 2
  %conv3.i = zext i16 %104 to i32
  %105 = load ptr, ptr %bin.addr.i3, align 8
  %low_bits_low_water.i = getelementptr inbounds %struct.cache_bin_s, ptr %105, i32 0, i32 2
  %106 = load i16, ptr %low_bits_low_water.i, align 8
  %conv4.i = zext i16 %106 to i32
  %cmp.i7 = icmp ne i32 %conv3.i, %conv4.i
  br i1 %cmp.i7, label %if.then.i12, label %if.end.i10

if.then.i12:                                      ; preds = %if.end50.i
  %107 = load ptr, ptr %new_head.i, align 8
  %108 = load ptr, ptr %bin.addr.i3, align 8
  store ptr %107, ptr %108, align 8
  %109 = load ptr, ptr %success.addr.i4, align 8
  store i8 1, ptr %109, align 1
  %110 = load ptr, ptr %ret.i5, align 8
  store ptr %110, ptr %retval.i2, align 8
  br label %cache_bin_alloc_impl.exit

if.end.i10:                                       ; preds = %if.end50.i
  %111 = load i8, ptr %adjust_low_water.addr.i, align 1
  %tobool9.i = trunc i8 %111 to i1
  br i1 %tobool9.i, label %if.end11.i, label %if.then10.i

if.then10.i:                                      ; preds = %if.end.i10
  %112 = load ptr, ptr %success.addr.i4, align 8
  store i8 0, ptr %112, align 1
  store ptr null, ptr %retval.i2, align 8
  br label %cache_bin_alloc_impl.exit

if.end11.i:                                       ; preds = %if.end.i10
  %113 = load i16, ptr %low_bits.i, align 2
  %conv12.i = zext i16 %113 to i32
  %114 = load ptr, ptr %bin.addr.i3, align 8
  %low_bits_empty.i = getelementptr inbounds %struct.cache_bin_s, ptr %114, i32 0, i32 4
  %115 = load i16, ptr %low_bits_empty.i, align 4
  %conv13.i11 = zext i16 %115 to i32
  %cmp14.i = icmp ne i32 %conv12.i, %conv13.i11
  br i1 %cmp14.i, label %if.then22.i, label %if.end26.i

if.then22.i:                                      ; preds = %if.end11.i
  %116 = load ptr, ptr %new_head.i, align 8
  %117 = load ptr, ptr %bin.addr.i3, align 8
  store ptr %116, ptr %117, align 8
  %118 = load ptr, ptr %new_head.i, align 8
  %119 = ptrtoint ptr %118 to i64
  %conv24.i = trunc i64 %119 to i16
  %120 = load ptr, ptr %bin.addr.i3, align 8
  %low_bits_low_water25.i = getelementptr inbounds %struct.cache_bin_s, ptr %120, i32 0, i32 2
  store i16 %conv24.i, ptr %low_bits_low_water25.i, align 8
  %121 = load ptr, ptr %success.addr.i4, align 8
  store i8 1, ptr %121, align 1
  %122 = load ptr, ptr %ret.i5, align 8
  store ptr %122, ptr %retval.i2, align 8
  br label %cache_bin_alloc_impl.exit

if.end26.i:                                       ; preds = %if.end11.i
  %123 = load ptr, ptr %success.addr.i4, align 8
  store i8 0, ptr %123, align 1
  store ptr null, ptr %retval.i2, align 8
  br label %cache_bin_alloc_impl.exit

cache_bin_alloc_impl.exit:                        ; preds = %if.end26.i, %if.then22.i, %if.then10.i, %if.then.i12
  %124 = load ptr, ptr %retval.i2, align 8
  store ptr %124, ptr %ret.i, align 8
  %125 = load i8, ptr %tcache_success.i, align 1
  %tobool52.i = trunc i8 %125 to i1
  br i1 %tobool52.i, label %if.then53.i, label %if.end54.i

if.then53.i:                                      ; preds = %cache_bin_alloc_impl.exit
  %126 = load ptr, ptr %tsd.i, align 8
  %127 = load i64, ptr %allocated_after.i, align 8
  %128 = load ptr, ptr %bin.i, align 8
  %129 = load ptr, ptr %ret.i, align 8
  store ptr %126, ptr %tsd.addr.i23, align 8
  store i64 %127, ptr %allocated_after.addr.i24, align 8
  store ptr %128, ptr %bin.addr.i25, align 8
  store ptr %129, ptr %ret.addr.i26, align 8
  %130 = load ptr, ptr %tsd.addr.i23, align 8
  %131 = load i64, ptr %allocated_after.addr.i24, align 8
  store ptr %130, ptr %tsd.addr.i32, align 8
  store i64 %131, ptr %v.addr.i, align 8
  %132 = load i64, ptr %v.addr.i, align 8
  %133 = load ptr, ptr %tsd.addr.i32, align 8
  store ptr %133, ptr %tsd.addr.i42, align 8
  %134 = load ptr, ptr %tsd.addr.i42, align 8
  store ptr %134, ptr %tsd.addr.i.i41, align 8
  %135 = load ptr, ptr %tsd.addr.i.i41, align 8
  %state.i.i44 = getelementptr inbounds %struct.tsd_s, ptr %135, i32 0, i32 29
  %136 = load i8, ptr %state.i.i44, align 8
  store i8 %136, ptr %state.i43, align 1
  %137 = load ptr, ptr %tsd.addr.i42, align 8
  store ptr %137, ptr %tsd.addr.i2.i40, align 8
  %138 = load ptr, ptr %tsd.addr.i2.i40, align 8
  %cant_access_tsd_items_directly_use_a_getter_or_setter_thread_allocated.i.i45 = getelementptr inbounds %struct.tsd_s, ptr %138, i32 0, i32 30
  store i64 %132, ptr %cant_access_tsd_items_directly_use_a_getter_or_setter_thread_allocated.i.i45, align 8
  %139 = load ptr, ptr %bin.addr.i25, align 8
  %tstats.i27 = getelementptr inbounds %struct.cache_bin_s, ptr %139, i32 0, i32 1
  %140 = load i64, ptr %tstats.i27, align 8
  %inc.i28 = add i64 %140, 1
  store i64 %inc.i28, ptr %tstats.i27, align 8
  %141 = load ptr, ptr %ret.i, align 8
  store ptr %141, ptr %retval.i, align 8
  br label %imalloc_fastpath.exit

if.end54.i:                                       ; preds = %cache_bin_alloc_impl.exit
  %142 = load ptr, ptr %fallback_alloc.addr.i, align 8
  %143 = load i64, ptr %size.addr.i, align 8
  %call55.i = call ptr %142(i64 noundef %143) #14
  store ptr %call55.i, ptr %retval.i, align 8
  br label %imalloc_fastpath.exit

imalloc_fastpath.exit:                            ; preds = %if.end54.i, %if.then53.i, %if.then49.i, %if.then39.i, %if.then15.i, %if.then.i
  %144 = load ptr, ptr %retval.i, align 8
  ret ptr %144
}