; Function Attrs: nounwind allocsize(0) uwtable
define dso_local noalias ptr @je_malloc(i64 noundef %size) local_unnamed_addr #4 {
entry:
  %0 = tail call align 8 ptr @llvm.threadlocal.address.p0(ptr align 8 @tsd_tls)
  %cmp.i = icmp ugt i64 %size, 4096
  br i1 %cmp.i, label %if.then15.i, label %if.end17.i

if.then15.i:                                      ; preds = %entry
  %call16.i = tail call ptr @malloc_default(i64 noundef %size) #19
  br label %imalloc_fastpath.exit

if.end17.i:                                       ; preds = %entry
  %sub.i.i = add nuw nsw i64 %size, 7
  %shr.i.i = lshr i64 %sub.i.i, 3
  %arrayidx.i2.i = getelementptr inbounds [0 x i8], ptr @sz_size2index_tab, i64 0, i64 %shr.i.i
  %1 = load i8, ptr %arrayidx.i2.i, align 1
  %idxprom.i.i = zext i8 %1 to i64
  %arrayidx.i.i = getelementptr inbounds [235 x i64], ptr @sz_index2size_tab, i64 0, i64 %idxprom.i.i
  %2 = load i64, ptr %arrayidx.i.i, align 8
  %cant_access_tsd_items_directly_use_a_getter_or_setter_thread_allocated.i = getelementptr inbounds i8, ptr %0, i64 840
  %3 = load i64, ptr %cant_access_tsd_items_directly_use_a_getter_or_setter_thread_allocated.i, align 8
  %cant_access_tsd_items_directly_use_a_getter_or_setter_thread_allocated_next_event_fast.i = getelementptr inbounds i8, ptr %0, i64 848
  %4 = load i64, ptr %cant_access_tsd_items_directly_use_a_getter_or_setter_thread_allocated_next_event_fast.i, align 8
  %add.i = add i64 %3, %2
  %cmp31.i.not = icmp ult i64 %add.i, %4
  br i1 %cmp31.i.not, label %if.end41.i, label %if.then39.i

if.then39.i:                                      ; preds = %if.end17.i
  %call40.i = tail call ptr @malloc_default(i64 noundef %size) #19
  br label %imalloc_fastpath.exit

if.end41.i:                                       ; preds = %if.end17.i
  %bins.i = getelementptr inbounds i8, ptr %0, i64 880
  %arrayidx.i = getelementptr inbounds [76 x %struct.cache_bin_s], ptr %bins.i, i64 0, i64 %idxprom.i.i
  %5 = load ptr, ptr %arrayidx.i, align 8
  %6 = ptrtoint ptr %5 to i64
  %low_bits_low_water.i.i = getelementptr inbounds i8, ptr %arrayidx.i, i64 16
  %7 = load i16, ptr %low_bits_low_water.i.i, align 8
  %8 = trunc i64 %6 to i16
  %cmp.i.i.not.not = icmp eq i16 %7, %8
  br i1 %cmp.i.i.not.not, label %if.end11.i, label %if.then49.i

if.then49.i:                                      ; preds = %if.end41.i
  %add.ptr.i.i = getelementptr inbounds i8, ptr %5, i64 8
  %9 = load ptr, ptr %5, align 8
  store ptr %add.ptr.i.i, ptr %arrayidx.i, align 8
  store i64 %add.i, ptr %cant_access_tsd_items_directly_use_a_getter_or_setter_thread_allocated.i, align 8
  %tstats.i = getelementptr inbounds i8, ptr %arrayidx.i, i64 8
  %10 = load i64, ptr %tstats.i, align 8
  %inc.i = add i64 %10, 1
  store i64 %inc.i, ptr %tstats.i, align 8
  br label %imalloc_fastpath.exit

if.end11.i:                                       ; preds = %if.end41.i
  %low_bits_empty.i = getelementptr inbounds i8, ptr %arrayidx.i, i64 20
  %11 = load i16, ptr %low_bits_empty.i, align 4
  %cmp14.i.not = icmp eq i16 %11, %7
  br i1 %cmp14.i.not, label %if.end54.i, label %if.then53.i

if.then53.i:                                      ; preds = %if.end11.i
  %add.ptr.i = getelementptr inbounds i8, ptr %5, i64 8
  %12 = load ptr, ptr %5, align 8
  store ptr %add.ptr.i, ptr %arrayidx.i, align 8
  %13 = ptrtoint ptr %add.ptr.i to i64
  %conv24.i = trunc i64 %13 to i16
  store i16 %conv24.i, ptr %low_bits_low_water.i.i, align 8
  store i64 %add.i, ptr %cant_access_tsd_items_directly_use_a_getter_or_setter_thread_allocated.i, align 8
  %tstats.i27 = getelementptr inbounds i8, ptr %arrayidx.i, i64 8
  %14 = load i64, ptr %tstats.i27, align 8
  %inc.i28 = add i64 %14, 1
  store i64 %inc.i28, ptr %tstats.i27, align 8
  br label %imalloc_fastpath.exit

if.end54.i:                                       ; preds = %if.end11.i
  %call55.i = tail call ptr @malloc_default(i64 noundef %size) #19
  br label %imalloc_fastpath.exit

imalloc_fastpath.exit:                            ; preds = %if.end54.i, %if.then53.i, %if.then49.i, %if.then39.i, %if.then15.i
  %retval.i.0 = phi ptr [ %call16.i, %if.then15.i ], [ %call40.i, %if.then39.i ], [ %9, %if.then49.i ], [ %12, %if.then53.i ], [ %call55.i, %if.end54.i ]
  ret ptr %retval.i.0
}